; Function Attrs: mustprogress uwtable
define void @_ZN6colvar16orientation_proj11apply_forceERK11colvarvalue(ptr nocapture noundef nonnull readonly align 8 dereferenceable(2336) %0, ptr noundef nonnull align 8 dereferenceable(168) %1) unnamed_addr #2 align 2 {
  %3 = getelementptr inbounds i8, ptr %0, i64 1648
  %4 = load ptr, ptr %3, align 8
  %5 = getelementptr inbounds i8, ptr %4, i64 1288
  %6 = load i8, ptr %5, align 8
  %7 = trunc i8 %6 to i1
  br i1 %7, label %10, label %8

8:                                                ; preds = %2
  %9 = getelementptr inbounds i8, ptr %1, i64 8
  tail call void @_ZN12colvarmodule10atom_group18apply_colvar_forceERKd(ptr noundef nonnull align 8 dereferenceable(1440) %4, ptr noundef nonnull align 8 dereferenceable(8) %9)
  br label %10

10:                                               ; preds = %8, %2
  ret void
}